; Function Attrs: mustprogress uwtable
define hidden void @_ZN6Assimp11X3DExporter9XML_WriteERKNSt7__cxx1112basic_stringIcSt11char_traitsIcESaIcEEE(ptr noundef nonnull readonly align 8 captures(none) dereferenceable(144) %0, ptr noundef nonnull readonly align 8 captures(none) dereferenceable(32) %1) local_unnamed_addr #0 align 2 personality ptr @__gxx_personality_v0 {
  %3 = getelementptr inbounds nuw i8, ptr %1, i64 8
  %4 = load i64, ptr %3, align 8
  %5 = icmp eq i64 %4, 0
  br i1 %5, label %19, label %6

6:                                                ; preds = %2
  %7 = getelementptr inbounds nuw i8, ptr %0, i64 8
  %8 = load ptr, ptr %7, align 8
  %9 = load ptr, ptr %1, align 8
  %10 = load ptr, ptr %8, align 8
  %11 = getelementptr inbounds nuw i8, ptr %10, i64 24
  %12 = load ptr, ptr %11, align 8
  %13 = tail call noundef i64 %12(ptr noundef nonnull align 8 dereferenceable(8) %8, ptr noundef %9, i64 noundef %4, i64 noundef 1)
  %.not = icmp eq i64 %13, 1
  br i1 %.not, label %19, label %14

14:                                               ; preds = %6
  %15 = tail call ptr @__cxa_allocate_exception(i64 16) #27
  invoke void @_ZN17DeadlyExportErrorC2IJRA28_KcEEEDpOT_(ptr noundef nonnull align 8 dereferenceable(16) %15, ptr noundef nonnull align 1 dereferenceable(28) @.str)
          to label %16 unwind label %17

16:                                               ; preds = %14
  tail call void @__cxa_throw(ptr nonnull %15, ptr nonnull @_ZTI17DeadlyExportError, ptr nonnull @_ZNSt13runtime_errorD2Ev) #30
  unreachable

17:                                               ; preds = %14
  %18 = landingpad { ptr, i32 }
          cleanup
  tail call void @__cxa_free_exception(ptr nonnull %15) #27
  resume { ptr, i32 } %18

19:                                               ; preds = %2, %6
  ret void
}